target datalayout = "e-m:e-p270:32:32-p271:32:32-p272:64:64-i64:64-i128:128-f80:128-n8:16:32:64-S128"
target triple = "x86_64-pc-linux-gnu"

%struct.ImGui_ImplGlfw_Data = type { ptr, i32, double, ptr, [9 x ptr], %struct.ImVec2, i8, i8, ptr, ptr, ptr, ptr, ptr, ptr, ptr, ptr }
%struct.ImVec2 = type { float, float }
%struct.ImGuiIO = type { i32, i32, %struct.ImVec2, float, float, ptr, ptr, ptr, ptr, float, i8, ptr, %struct.ImVec2, i8, i8, i8, i8, i8, i8, i8, i8, i8, i8, float, float, float, float, float, float, i8, i8, i8, i8, i8, i8, i8, i8, i8, i8, ptr, ptr, ptr, ptr, ptr, i8, i8, i8, i8, i8, i8, i8, float, i32, i32, i32, i32, %struct.ImVec2, ptr, %struct.ImVec2, [5 x i8], float, float, i32, i8, i8, i8, i8, i32, [154 x %struct.ImGuiKeyData], i8, %struct.ImVec2, [5 x %struct.ImVec2], [5 x double], [5 x i8], [5 x i8], [5 x i16], [5 x i16], [5 x i8], [5 x i8], [5 x i8], i8, i8, [5 x float], [5 x float], [5 x float], float, i8, i8, i8, i8, i16, %struct.ImVector }
%struct.ImGuiKeyData = type { i8, float, float, float }
%struct.ImVector = type { i32, i32, ptr }

; Function Attrs: mustprogress uwtable
define internal noundef ptr @_ZL29ImGui_ImplGlfw_GetBackendDatav() #1 {
  %1 = call noundef ptr @_ZN5ImGui17GetCurrentContextEv()
  %2 = icmp ne ptr %1, null
  br i1 %2, label %3, label %7

3:                                                ; preds = %0
  %4 = call noundef nonnull align 8 dereferenceable(2944) ptr @_ZN5ImGui5GetIOEv()
  %5 = getelementptr inbounds nuw %struct.ImGuiIO, ptr %4, i32 0, i32 41
  %6 = load ptr, ptr %5, align 8, !tbaa !22
  br label %8

7:                                                ; preds = %0
  br label %8

8:                                                ; preds = %7, %3
  %9 = phi ptr [ %6, %3 ], [ null, %7 ]
  ret ptr %9
}

; Function Attrs: mustprogress uwtable
define dso_local void @_Z31ImGui_ImplGlfw_InstallCallbacksP10GLFWwindow(ptr noundef %0) #1 {
  %2 = alloca ptr, align 8
  %3 = alloca ptr, align 8
  store ptr %0, ptr %2, align 8, !tbaa !8
  call void @llvm.lifetime.start.p0(i64 8, ptr %3) #9
  %4 = call noundef ptr @_ZL29ImGui_ImplGlfw_GetBackendDatav()
  store ptr %4, ptr %3, align 8, !tbaa !11
  %5 = load ptr, ptr %2, align 8, !tbaa !8
  %6 = call ptr @glfwSetWindowFocusCallback(ptr noundef %5, ptr noundef @_Z34ImGui_ImplGlfw_WindowFocusCallbackP10GLFWwindowi)
  %7 = load ptr, ptr %3, align 8, !tbaa !11
  %8 = getelementptr inbounds nuw %struct.ImGui_ImplGlfw_Data, ptr %7, i32 0, i32 8
  store ptr %6, ptr %8, align 8, !tbaa !44
  %9 = load ptr, ptr %2, align 8, !tbaa !8
  %10 = call ptr @glfwSetCursorEnterCallback(ptr noundef %9, ptr noundef @_Z34ImGui_ImplGlfw_CursorEnterCallbackP10GLFWwindowi)
  %11 = load ptr, ptr %3, align 8, !tbaa !11
  %12 = getelementptr inbounds nuw %struct.ImGui_ImplGlfw_Data, ptr %11, i32 0, i32 10
  store ptr %10, ptr %12, align 8, !tbaa !52
  %13 = load ptr, ptr %2, align 8, !tbaa !8
  %14 = call ptr @glfwSetCursorPosCallback(ptr noundef %13, ptr noundef @_Z32ImGui_ImplGlfw_CursorPosCallbackP10GLFWwindowdd)
  %15 = load ptr, ptr %3, align 8, !tbaa !11
  %16 = getelementptr inbounds nuw %struct.ImGui_ImplGlfw_Data, ptr %15, i32 0, i32 9
  store ptr %14, ptr %16, align 8, !tbaa !45
  %17 = load ptr, ptr %2, align 8, !tbaa !8
  %18 = call ptr @glfwSetMouseButtonCallback(ptr noundef %17, ptr noundef @_Z34ImGui_ImplGlfw_MouseButtonCallbackP10GLFWwindowiii)
  %19 = load ptr, ptr %3, align 8, !tbaa !11
  %20 = getelementptr inbounds nuw %struct.ImGui_ImplGlfw_Data, ptr %19, i32 0, i32 11
  store ptr %18, ptr %20, align 8, !tbaa !13
  %21 = load ptr, ptr %2, align 8, !tbaa !8
  %22 = call ptr @glfwSetScrollCallback(ptr noundef %21, ptr noundef @_Z29ImGui_ImplGlfw_ScrollCallbackP10GLFWwindowdd)
  %23 = load ptr, ptr %3, align 8, !tbaa !11
  %24 = getelementptr inbounds nuw %struct.ImGui_ImplGlfw_Data, ptr %23, i32 0, i32 12
  store ptr %22, ptr %24, align 8, !tbaa !37
  %25 = load ptr, ptr %2, align 8, !tbaa !8
  %26 = call ptr @glfwSetKeyCallback(ptr noundef %25, ptr noundef @_Z26ImGui_ImplGlfw_KeyCallbackP10GLFWwindowiiii)
  %27 = load ptr, ptr %3, align 8, !tbaa !11
  %28 = getelementptr inbounds nuw %struct.ImGui_ImplGlfw_Data, ptr %27, i32 0, i32 13
  store ptr %26, ptr %28, align 8, !tbaa !38
  %29 = load ptr, ptr %2, align 8, !tbaa !8
  %30 = call ptr @glfwSetCharCallback(ptr noundef %29, ptr noundef @_Z27ImGui_ImplGlfw_CharCallbackP10GLFWwindowj)
  %31 = load ptr, ptr %3, align 8, !tbaa !11
  %32 = getelementptr inbounds nuw %struct.ImGui_ImplGlfw_Data, ptr %31, i32 0, i32 14
  store ptr %30, ptr %32, align 8, !tbaa !56
  %33 = call ptr @glfwSetMonitorCallback(ptr noundef @_Z30ImGui_ImplGlfw_MonitorCallbackP11GLFWmonitori)
  %34 = load ptr, ptr %3, align 8, !tbaa !11
  %35 = getelementptr inbounds nuw %struct.ImGui_ImplGlfw_Data, ptr %34, i32 0, i32 15
  store ptr %33, ptr %35, align 8, !tbaa !59
  %36 = load ptr, ptr %3, align 8, !tbaa !11
  %37 = getelementptr inbounds nuw %struct.ImGui_ImplGlfw_Data, ptr %36, i32 0, i32 6
  store i8 1, ptr %37, align 8, !tbaa !60
  call void @llvm.lifetime.end.p0(i64 8, ptr %3) #9
  ret void
}