; Function Attrs: mustprogress uwtable
define dso_local void @_Z31ImGui_ImplGlfw_InstallCallbacksP10GLFWwindow(ptr noundef %0) local_unnamed_addr #1 {
  %2 = tail call noundef ptr @_ZN5ImGui17GetCurrentContextEv()
  %.not.i = icmp eq ptr %2, null
  br i1 %.not.i, label %_ZL29ImGui_ImplGlfw_GetBackendDatav.exit, label %3

3:                                                ; preds = %1
  %4 = tail call noundef nonnull align 8 dereferenceable(2944) ptr @_ZN5ImGui5GetIOEv()
  %5 = getelementptr inbounds nuw i8, ptr %4, i64 144
  %6 = load ptr, ptr %5, align 8, !tbaa !4
  br label %_ZL29ImGui_ImplGlfw_GetBackendDatav.exit

_ZL29ImGui_ImplGlfw_GetBackendDatav.exit:         ; preds = %1, %3
  %7 = phi ptr [ %6, %3 ], [ null, %1 ]
  %8 = tail call ptr @glfwSetWindowFocusCallback(ptr noundef %0, ptr noundef nonnull @_Z34ImGui_ImplGlfw_WindowFocusCallbackP10GLFWwindowi)
  %9 = getelementptr inbounds nuw i8, ptr %7, i64 120
  store ptr %8, ptr %9, align 8, !tbaa !34
  %10 = tail call ptr @glfwSetCursorEnterCallback(ptr noundef %0, ptr noundef nonnull @_Z34ImGui_ImplGlfw_CursorEnterCallbackP10GLFWwindowi)
  %11 = getelementptr inbounds nuw i8, ptr %7, i64 136
  store ptr %10, ptr %11, align 8, !tbaa !36
  %12 = tail call ptr @glfwSetCursorPosCallback(ptr noundef %0, ptr noundef nonnull @_Z32ImGui_ImplGlfw_CursorPosCallbackP10GLFWwindowdd)
  %13 = getelementptr inbounds nuw i8, ptr %7, i64 128
  store ptr %12, ptr %13, align 8, !tbaa !35
  %14 = tail call ptr @glfwSetMouseButtonCallback(ptr noundef %0, ptr noundef nonnull @_Z34ImGui_ImplGlfw_MouseButtonCallbackP10GLFWwindowiii)
  %15 = getelementptr inbounds nuw i8, ptr %7, i64 144
  store ptr %14, ptr %15, align 8, !tbaa !21
  %16 = tail call ptr @glfwSetScrollCallback(ptr noundef %0, ptr noundef nonnull @_Z29ImGui_ImplGlfw_ScrollCallbackP10GLFWwindowdd)
  %17 = getelementptr inbounds nuw i8, ptr %7, i64 152
  store ptr %16, ptr %17, align 8, !tbaa !30
  %18 = tail call ptr @glfwSetKeyCallback(ptr noundef %0, ptr noundef nonnull @_Z26ImGui_ImplGlfw_KeyCallbackP10GLFWwindowiiii)
  %19 = getelementptr inbounds nuw i8, ptr %7, i64 160
  store ptr %18, ptr %19, align 8, !tbaa !31
  %20 = tail call ptr @glfwSetCharCallback(ptr noundef %0, ptr noundef nonnull @_Z27ImGui_ImplGlfw_CharCallbackP10GLFWwindowj)
  %21 = getelementptr inbounds nuw i8, ptr %7, i64 168
  store ptr %20, ptr %21, align 8, !tbaa !40
  %22 = tail call ptr @glfwSetMonitorCallback(ptr noundef nonnull @_Z30ImGui_ImplGlfw_MonitorCallbackP11GLFWmonitori)
  %23 = getelementptr inbounds nuw i8, ptr %7, i64 176
  store ptr %22, ptr %23, align 8, !tbaa !41
  %24 = getelementptr inbounds nuw i8, ptr %7, i64 112
  store i8 1, ptr %24, align 8, !tbaa !42
  ret void
}